target datalayout = "e-m:e-p270:32:32-p271:32:32-p272:64:64-i64:64-i128:128-f80:128-n8:16:32:64-S128"
target triple = "x86_64-pc-linux-gnu"

%struct.VP8EncIterator = type { i32, i32, ptr, ptr, ptr, ptr, ptr, ptr, ptr, ptr, ptr, [37 x i8], ptr, i32, [9 x i32], [9 x i32], [4 x [3 x i64]], i64, i64, ptr, i32, i32, i32, i32, [2 x [2 x i8]], ptr, ptr, ptr, ptr, ptr, ptr, [88 x i8], [3359 x i8] }
%struct.VP8Encoder = type { ptr, ptr, %struct.VP8EncFilterHeader, %struct.VP8EncSegmentHeader, i32, i32, i32, i32, i32, %struct.VP8BitWriter, [8 x %struct.VP8BitWriter], %struct.VP8TBuffer, i32, i32, ptr, i32, %struct.WebPWorker, [4 x %struct.VP8SegmentInfo], i32, i32, i32, i32, i32, i32, i32, i32, %struct.VP8EncProba, [4 x i64], i64, i32, [3 x [4 x i32]], [3 x i32], i32, i32, i32, i32, i32, i32, i32, ptr, ptr, ptr, ptr, ptr, ptr, ptr }
%struct.VP8EncFilterHeader = type { i32, i32, i32, i32 }
%struct.VP8EncSegmentHeader = type { i32, i32, i32 }
%struct.VP8BitWriter = type { i32, i32, i32, i32, ptr, i64, i64, i32 }
%struct.VP8TBuffer = type { ptr, ptr, ptr, i32, i32, i32 }
%struct.WebPWorker = type { ptr, i32, ptr, ptr, ptr, i32 }
%struct.VP8SegmentInfo = type { %struct.VP8Matrix, %struct.VP8Matrix, %struct.VP8Matrix, i32, i32, i32, i32, i32, i32, i32, i32, i32, i32, i32, i32, i32, i32, i32, i64 }
%struct.VP8Matrix = type { [16 x i16], [16 x i16], [16 x i32], [16 x i32], [16 x i16] }
%struct.VP8EncProba = type { [3 x i8], i8, [4 x [8 x [3 x [11 x i8]]]], [4 x [8 x [3 x [11 x i32]]]], [4 x [8 x [3 x [68 x i16]]]], [4 x [16 x [3 x ptr]]], i32, i32, i32 }
%struct.WebPConfig = type { i32, float, i32, i32, i32, float, i32, i32, i32, i32, i32, i32, i32, i32, i32, i32, i32, i32, i32, i32, i32, i32, i32, i32, i32, i32, i32, i32, i32 }

; Function Attrs: nounwind uwtable
define hidden i32 @VP8FilterStrengthFromDelta(i32 noundef %0, i32 noundef %1) #0 {
  %3 = alloca i32, align 4
  %4 = alloca i32, align 4
  %5 = alloca i32, align 4
  store i32 %0, ptr %3, align 4, !tbaa !3
  store i32 %1, ptr %4, align 4, !tbaa !3
  call void @llvm.lifetime.start.p0(i64 4, ptr %5) #4
  %6 = load i32, ptr %4, align 4, !tbaa !3
  %7 = icmp slt i32 %6, 64
  br i1 %7, label %8, label %10

8:                                                ; preds = %2
  %9 = load i32, ptr %4, align 4, !tbaa !3
  br label %11

10:                                               ; preds = %2
  br label %11

11:                                               ; preds = %10, %8
  %12 = phi i32 [ %9, %8 ], [ 63, %10 ]
  store i32 %12, ptr %5, align 4, !tbaa !3
  %13 = load i32, ptr %3, align 4, !tbaa !3
  %14 = sext i32 %13 to i64
  %15 = getelementptr inbounds [8 x [64 x i8]], ptr @kLevelsFromDelta, i64 0, i64 %14
  %16 = load i32, ptr %5, align 4, !tbaa !3
  %17 = sext i32 %16 to i64
  %18 = getelementptr inbounds [64 x i8], ptr %15, i64 0, i64 %17
  %19 = load i8, ptr %18, align 1, !tbaa !7
  %20 = zext i8 %19 to i32
  call void @llvm.lifetime.end.p0(i64 4, ptr %5) #4
  ret i32 %20
}

; Function Attrs: nounwind uwtable
define hidden void @VP8AdjustFilterStrength(ptr noundef %0) #0 {
  %2 = alloca ptr, align 8
  %3 = alloca ptr, align 8
  %4 = alloca i32, align 4
  %5 = alloca i32, align 4
  %6 = alloca i32, align 4
  %7 = alloca double, align 8
  %8 = alloca double, align 8
  %9 = alloca i32, align 4
  %10 = alloca i32, align 4
  %11 = alloca i32, align 4
  %12 = alloca ptr, align 8
  %13 = alloca i32, align 4
  %14 = alloca i32, align 4
  store ptr %0, ptr %2, align 8, !tbaa !8
  call void @llvm.lifetime.start.p0(i64 8, ptr %3) #4
  %15 = load ptr, ptr %2, align 8, !tbaa !8
  %16 = getelementptr inbounds nuw %struct.VP8EncIterator, ptr %15, i32 0, i32 6
  %17 = load ptr, ptr %16, align 8, !tbaa !23
  store ptr %17, ptr %3, align 8, !tbaa !24
  %18 = load ptr, ptr %2, align 8, !tbaa !8
  %19 = getelementptr inbounds nuw %struct.VP8EncIterator, ptr %18, i32 0, i32 19
  %20 = load ptr, ptr %19, align 8, !tbaa !10
  %21 = icmp ne ptr %20, null
  br i1 %21, label %22, label %72

22:                                               ; preds = %1
  call void @llvm.lifetime.start.p0(i64 4, ptr %4) #4
  store i32 0, ptr %4, align 4, !tbaa !3
  br label %23

23:                                               ; preds = %68, %22
  %24 = load i32, ptr %4, align 4, !tbaa !3
  %25 = icmp slt i32 %24, 4
  br i1 %25, label %26, label %71

26:                                               ; preds = %23
  call void @llvm.lifetime.start.p0(i64 4, ptr %5) #4
  call void @llvm.lifetime.start.p0(i64 4, ptr %6) #4
  store i32 0, ptr %6, align 4, !tbaa !3
  call void @llvm.lifetime.start.p0(i64 8, ptr %7) #4
  %27 = load ptr, ptr %2, align 8, !tbaa !8
  %28 = getelementptr inbounds nuw %struct.VP8EncIterator, ptr %27, i32 0, i32 19
  %29 = load ptr, ptr %28, align 8, !tbaa !10
  %30 = load i32, ptr %4, align 4, !tbaa !3
  %31 = sext i32 %30 to i64
  %32 = getelementptr inbounds [4 x [64 x double]], ptr %29, i64 0, i64 %31
  %33 = getelementptr inbounds [64 x double], ptr %32, i64 0, i64 0
  %34 = load double, ptr %33, align 8, !tbaa !18
  %35 = fmul double 1.000010e+00, %34
  store double %35, ptr %7, align 8, !tbaa !18
  store i32 1, ptr %5, align 4, !tbaa !3
  br label %36

36:                                               ; preds = %57, %26
  %37 = load i32, ptr %5, align 4, !tbaa !3
  %38 = icmp slt i32 %37, 64
  br i1 %38, label %39, label %60

39:                                               ; preds = %36
  call void @llvm.lifetime.start.p0(i64 8, ptr %8) #4
  %40 = load ptr, ptr %2, align 8, !tbaa !8
  %41 = getelementptr inbounds nuw %struct.VP8EncIterator, ptr %40, i32 0, i32 19
  %42 = load ptr, ptr %41, align 8, !tbaa !10
  %43 = load i32, ptr %4, align 4, !tbaa !3
  %44 = sext i32 %43 to i64
  %45 = getelementptr inbounds [4 x [64 x double]], ptr %42, i64 0, i64 %44
  %46 = load i32, ptr %5, align 4, !tbaa !3
  %47 = sext i32 %46 to i64
  %48 = getelementptr inbounds [64 x double], ptr %45, i64 0, i64 %47
  %49 = load double, ptr %48, align 8, !tbaa !18
  store double %49, ptr %8, align 8, !tbaa !18
  %50 = load double, ptr %8, align 8, !tbaa !18
  %51 = load double, ptr %7, align 8, !tbaa !18
  %52 = fcmp ogt double %50, %51
  br i1 %52, label %53, label %56

53:                                               ; preds = %39
  %54 = load double, ptr %8, align 8, !tbaa !18
  store double %54, ptr %7, align 8, !tbaa !18
  %55 = load i32, ptr %5, align 4, !tbaa !3
  store i32 %55, ptr %6, align 4, !tbaa !3
  br label %56

56:                                               ; preds = %53, %39
  call void @llvm.lifetime.end.p0(i64 8, ptr %8) #4
  br label %57

57:                                               ; preds = %56
  %58 = load i32, ptr %5, align 4, !tbaa !3
  %59 = add nsw i32 %58, 1
  store i32 %59, ptr %5, align 4, !tbaa !3
  br label %36, !llvm.loop !56

60:                                               ; preds = %36
  %61 = load i32, ptr %6, align 4, !tbaa !3
  %62 = load ptr, ptr %3, align 8, !tbaa !24
  %63 = getelementptr inbounds nuw %struct.VP8Encoder, ptr %62, i32 0, i32 17
  %64 = load i32, ptr %4, align 4, !tbaa !3
  %65 = sext i32 %64 to i64
  %66 = getelementptr inbounds [4 x %struct.VP8SegmentInfo], ptr %63, i64 0, i64 %65
  %67 = getelementptr inbounds nuw %struct.VP8SegmentInfo, ptr %66, i32 0, i32 6
  store i32 %61, ptr %67, align 4, !tbaa !26
  call void @llvm.lifetime.end.p0(i64 8, ptr %7) #4
  call void @llvm.lifetime.end.p0(i64 4, ptr %6) #4
  call void @llvm.lifetime.end.p0(i64 4, ptr %5) #4
  br label %68

68:                                               ; preds = %60
  %69 = load i32, ptr %4, align 4, !tbaa !3
  %70 = add nsw i32 %69, 1
  store i32 %70, ptr %4, align 4, !tbaa !3
  br label %23, !llvm.loop !57

71:                                               ; preds = %23
  store i32 1, ptr %9, align 4
  call void @llvm.lifetime.end.p0(i64 4, ptr %4) #4
  br label %135

72:                                               ; preds = %1
  %73 = load ptr, ptr %3, align 8, !tbaa !24
  %74 = getelementptr inbounds nuw %struct.VP8Encoder, ptr %73, i32 0, i32 0
  %75 = load ptr, ptr %74, align 8, !tbaa !39
  %76 = getelementptr inbounds nuw %struct.WebPConfig, ptr %75, i32 0, i32 8
  %77 = load i32, ptr %76, align 4, !tbaa !58
  %78 = icmp sgt i32 %77, 0
  br i1 %78, label %79, label %134

79:                                               ; preds = %72
  call void @llvm.lifetime.start.p0(i64 4, ptr %10) #4
  store i32 0, ptr %10, align 4, !tbaa !3
  call void @llvm.lifetime.start.p0(i64 4, ptr %11) #4
  store i32 0, ptr %11, align 4, !tbaa !3
  br label %80

80:                                               ; preds = %126, %79
  %81 = load i32, ptr %11, align 4, !tbaa !3
  %82 = icmp slt i32 %81, 4
  br i1 %82, label %83, label %129

83:                                               ; preds = %80
  call void @llvm.lifetime.start.p0(i64 8, ptr %12) #4
  %84 = load ptr, ptr %3, align 8, !tbaa !24
  %85 = getelementptr inbounds nuw %struct.VP8Encoder, ptr %84, i32 0, i32 17
  %86 = load i32, ptr %11, align 4, !tbaa !3
  %87 = sext i32 %86 to i64
  %88 = getelementptr inbounds [4 x %struct.VP8SegmentInfo], ptr %85, i64 0, i64 %87
  store ptr %88, ptr %12, align 8, !tbaa !8
  call void @llvm.lifetime.start.p0(i64 4, ptr %13) #4
  %89 = load ptr, ptr %12, align 8, !tbaa !8
  %90 = getelementptr inbounds nuw %struct.VP8SegmentInfo, ptr %89, i32 0, i32 7
  %91 = load i32, ptr %90, align 8, !tbaa !59
  %92 = load ptr, ptr %12, align 8, !tbaa !8
  %93 = getelementptr inbounds nuw %struct.VP8SegmentInfo, ptr %92, i32 0, i32 1
  %94 = getelementptr inbounds nuw %struct.VP8Matrix, ptr %93, i32 0, i32 0
  %95 = getelementptr inbounds [16 x i16], ptr %94, i64 0, i64 1
  %96 = load i16, ptr %95, align 2, !tbaa !60
  %97 = zext i16 %96 to i32
  %98 = mul nsw i32 %91, %97
  %99 = ashr i32 %98, 3
  store i32 %99, ptr %13, align 4, !tbaa !3
  call void @llvm.lifetime.start.p0(i64 4, ptr %14) #4
  %100 = load ptr, ptr %3, align 8, !tbaa !24
  %101 = getelementptr inbounds nuw %struct.VP8Encoder, ptr %100, i32 0, i32 2
  %102 = getelementptr inbounds nuw %struct.VP8EncFilterHeader, ptr %101, i32 0, i32 2
  %103 = load i32, ptr %102, align 8, !tbaa !62
  %104 = load i32, ptr %13, align 4, !tbaa !3
  %105 = call i32 @VP8FilterStrengthFromDelta(i32 noundef %103, i32 noundef %104)
  store i32 %105, ptr %14, align 4, !tbaa !3
  %106 = load i32, ptr %14, align 4, !tbaa !3
  %107 = load ptr, ptr %12, align 8, !tbaa !8
  %108 = getelementptr inbounds nuw %struct.VP8SegmentInfo, ptr %107, i32 0, i32 6
  %109 = load i32, ptr %108, align 4, !tbaa !26
  %110 = icmp sgt i32 %106, %109
  br i1 %110, label %111, label %115

111:                                              ; preds = %83
  %112 = load i32, ptr %14, align 4, !tbaa !3
  %113 = load ptr, ptr %12, align 8, !tbaa !8
  %114 = getelementptr inbounds nuw %struct.VP8SegmentInfo, ptr %113, i32 0, i32 6
  store i32 %112, ptr %114, align 4, !tbaa !26
  br label %115

115:                                              ; preds = %111, %83
  %116 = load i32, ptr %10, align 4, !tbaa !3
  %117 = load ptr, ptr %12, align 8, !tbaa !8
  %118 = getelementptr inbounds nuw %struct.VP8SegmentInfo, ptr %117, i32 0, i32 6
  %119 = load i32, ptr %118, align 4, !tbaa !26
  %120 = icmp slt i32 %116, %119
  br i1 %120, label %121, label %125

121:                                              ; preds = %115
  %122 = load ptr, ptr %12, align 8, !tbaa !8
  %123 = getelementptr inbounds nuw %struct.VP8SegmentInfo, ptr %122, i32 0, i32 6
  %124 = load i32, ptr %123, align 4, !tbaa !26
  store i32 %124, ptr %10, align 4, !tbaa !3
  br label %125

125:                                              ; preds = %121, %115
  call void @llvm.lifetime.end.p0(i64 4, ptr %14) #4
  call void @llvm.lifetime.end.p0(i64 4, ptr %13) #4
  call void @llvm.lifetime.end.p0(i64 8, ptr %12) #4
  br label %126

126:                                              ; preds = %125
  %127 = load i32, ptr %11, align 4, !tbaa !3
  %128 = add nsw i32 %127, 1
  store i32 %128, ptr %11, align 4, !tbaa !3
  br label %80, !llvm.loop !63

129:                                              ; preds = %80
  %130 = load i32, ptr %10, align 4, !tbaa !3
  %131 = load ptr, ptr %3, align 8, !tbaa !24
  %132 = getelementptr inbounds nuw %struct.VP8Encoder, ptr %131, i32 0, i32 2
  %133 = getelementptr inbounds nuw %struct.VP8EncFilterHeader, ptr %132, i32 0, i32 1
  store i32 %130, ptr %133, align 4, !tbaa !64
  call void @llvm.lifetime.end.p0(i64 4, ptr %11) #4
  call void @llvm.lifetime.end.p0(i64 4, ptr %10) #4
  br label %134

134:                                              ; preds = %129, %72
  store i32 0, ptr %9, align 4
  br label %135

135:                                              ; preds = %134, %71
  call void @llvm.lifetime.end.p0(i64 8, ptr %3) #4
  %136 = load i32, ptr %9, align 4
  switch i32 %136, label %138 [
    i32 0, label %137
    i32 1, label %137
  ]

137:                                              ; preds = %135, %135
  ret void

138:                                              ; preds = %135
  unreachable
}