; Function Attrs: nofree norecurse nosync nounwind memory(readwrite, inaccessiblemem: none) uwtable
define hidden void @VP8AdjustFilterStrength(ptr noundef readonly captures(none) %0) local_unnamed_addr #3 {
  %2 = getelementptr inbounds nuw i8, ptr %0, i64 40
  %3 = load ptr, ptr %2, align 8, !tbaa !18
  %4 = getelementptr inbounds nuw i8, ptr %0, i64 320
  %5 = load ptr, ptr %4, align 8, !tbaa !6
  %.not = icmp eq ptr %5, null
  br i1 %.not, label %18, label %.preheader45

.preheader45:                                     ; preds = %1
  %6 = getelementptr i8, ptr %3, i64 1292
  br label %7

7:                                                ; preds = %.preheader45, %16
  %indvars.iv53 = phi i64 [ 0, %.preheader45 ], [ %indvars.iv.next54, %16 ]
  %8 = getelementptr inbounds nuw [4 x [64 x double]], ptr %5, i64 0, i64 %indvars.iv53
  %9 = load double, ptr %8, align 8, !tbaa !16
  %10 = fmul double %9, 1.000010e+00
  br label %11

11:                                               ; preds = %7, %11
  %indvars.iv = phi i64 [ 1, %7 ], [ %indvars.iv.next, %11 ]
  %.03647 = phi i32 [ 0, %7 ], [ %.1, %11 ]
  %.04046 = phi double [ %10, %7 ], [ %.141, %11 ]
  %12 = getelementptr inbounds nuw [4 x [64 x double]], ptr %5, i64 0, i64 %indvars.iv53, i64 %indvars.iv
  %13 = load double, ptr %12, align 8, !tbaa !16
  %14 = fcmp ogt double %13, %.04046
  %.141 = select i1 %14, double %13, double %.04046
  %15 = trunc nuw nsw i64 %indvars.iv to i32
  %.1 = select i1 %14, i32 %15, i32 %.03647
  %indvars.iv.next = add nuw nsw i64 %indvars.iv, 1
  %exitcond.not = icmp eq i64 %indvars.iv.next, 64
  br i1 %exitcond.not, label %16, label %11, !llvm.loop !51

16:                                               ; preds = %11
  %.idx = mul nuw nsw i64 %indvars.iv53, 744
  %17 = getelementptr i8, ptr %6, i64 %.idx
  store i32 %.1, ptr %17, align 4, !tbaa !20
  %indvars.iv.next54 = add nuw nsw i64 %indvars.iv53, 1
  %exitcond56.not = icmp eq i64 %indvars.iv.next54, 4
  br i1 %exitcond56.not, label %.loopexit, label %7, !llvm.loop !52

18:                                               ; preds = %1
  %19 = load ptr, ptr %3, align 8, !tbaa !32
  %20 = getelementptr inbounds nuw i8, ptr %19, i64 32
  %21 = load i32, ptr %20, align 4, !tbaa !53
  %22 = icmp sgt i32 %21, 0
  br i1 %22, label %.preheader, label %.loopexit

.preheader:                                       ; preds = %18
  %23 = getelementptr inbounds nuw i8, ptr %3, i64 608
  %24 = getelementptr inbounds nuw i8, ptr %3, i64 24
  %25 = load i32, ptr %24, align 8, !tbaa !54
  %26 = sext i32 %25 to i64
  br label %27

27:                                               ; preds = %.preheader, %45
  %indvars.iv57 = phi i64 [ 0, %.preheader ], [ %indvars.iv.next58, %45 ]
  %.03850 = phi i32 [ 0, %.preheader ], [ %spec.select, %45 ]
  %28 = getelementptr inbounds nuw [4 x %struct.VP8SegmentInfo], ptr %23, i64 0, i64 %indvars.iv57
  %29 = getelementptr inbounds nuw i8, ptr %28, i64 688
  %30 = load i32, ptr %29, align 8, !tbaa !55
  %31 = getelementptr inbounds nuw i8, ptr %28, i64 226
  %32 = load i16, ptr %31, align 2, !tbaa !56
  %33 = zext i16 %32 to i32
  %34 = mul nsw i32 %30, %33
  %35 = ashr i32 %34, 3
  %36 = tail call i32 @llvm.smin.i32(i32 %35, i32 63)
  %37 = sext i32 %36 to i64
  %38 = getelementptr inbounds [8 x [64 x i8]], ptr @kLevelsFromDelta, i64 0, i64 %26, i64 %37
  %39 = load i8, ptr %38, align 1, !tbaa !3
  %40 = zext i8 %39 to i32
  %41 = getelementptr inbounds nuw i8, ptr %28, i64 684
  %42 = load i32, ptr %41, align 4, !tbaa !20
  %43 = icmp slt i32 %42, %40
  br i1 %43, label %44, label %45

44:                                               ; preds = %27
  store i32 %40, ptr %41, align 4, !tbaa !20
  br label %45

45:                                               ; preds = %44, %27
  %46 = phi i32 [ %40, %44 ], [ %42, %27 ]
  %spec.select = tail call i32 @llvm.smax.i32(i32 %.03850, i32 %46)
  %indvars.iv.next58 = add nuw nsw i64 %indvars.iv57, 1
  %exitcond60.not = icmp eq i64 %indvars.iv.next58, 4
  br i1 %exitcond60.not, label %47, label %27, !llvm.loop !58

47:                                               ; preds = %45
  %48 = getelementptr inbounds nuw i8, ptr %3, i64 20
  store i32 %spec.select, ptr %48, align 4, !tbaa !59
  br label %.loopexit

.loopexit:                                        ; preds = %16, %18, %47
  ret void
}